; Function Attrs: mustprogress uwtable
define hidden noundef zeroext i1 @_ZNK4cvc58internal4prop16ZeroLevelLearner27hasLearnedLiteralForRestartEv(ptr noundef nonnull align 8 dereferenceable(1320) %0) local_unnamed_addr #4 align 2 {
  %2 = getelementptr inbounds nuw i8, ptr %0, i64 664
  %3 = getelementptr inbounds nuw i8, ptr %0, i64 80
  br label %4

4:                                                ; preds = %5, %1
  %.sroa.08.0.in = phi ptr [ %2, %1 ], [ %.sroa.08.0, %5 ]
  %.sroa.08.0 = load ptr, ptr %.sroa.08.0.in, align 8, !tbaa !323
  %.not11.not.not.not.not.not = icmp ne ptr %.sroa.08.0, null
  br i1 %.not11.not.not.not.not.not, label %5, label %9

5:                                                ; preds = %4
  %6 = getelementptr inbounds nuw i8, ptr %.sroa.08.0, i64 8
  %7 = load i32, ptr %6, align 4, !tbaa !314
  %8 = tail call noundef i64 @_ZNK4cvc58internal4prop9LearnedDb21getNumLearnedLiteralsENS_5modes14LearnedLitTypeE(ptr noundef nonnull align 8 dereferenceable(336) %3, i32 noundef %7)
  %.not = icmp eq i64 %8, 0
  br i1 %.not, label %4, label %9

9:                                                ; preds = %4, %5
  ret i1 %.not11.not.not.not.not.not
}